target datalayout = "e-m:e-p270:32:32-p271:32:32-p272:64:64-i64:64-i128:128-f80:128-n8:16:32:64-S128"
target triple = "x86_64-pc-linux-gnu"

%"class.zmq::object_t" = type <{ ptr, ptr, i32, [4 x i8] }>
%"struct.zmq::command_t" = type { ptr, i32, %"union.zmq::command_t::args_t", [24 x i8] }
%"union.zmq::command_t::args_t" = type { %struct.anon.16 }
%struct.anon.16 = type { i64, ptr, ptr }

; Function Attrs: mustprogress nounwind uwtable
define noundef i32 @_ZNK3zmq8object_t7get_tidEv(ptr noundef nonnull align 8 dereferenceable(20) %0) #0 align 2 {
  %2 = alloca ptr, align 8
  store ptr %0, ptr %2, align 8, !tbaa !3
  %3 = load ptr, ptr %2, align 8
  %4 = getelementptr inbounds nuw %"class.zmq::object_t", ptr %3, i32 0, i32 2
  %5 = load i32, ptr %4, align 8, !tbaa !16
  ret i32 %5
}

; Function Attrs: mustprogress uwtable
define void @_ZN3zmq8object_t12send_commandERKNS_9command_tE(ptr noundef nonnull align 8 dereferenceable(20) %0, ptr noundef nonnull align 64 dereferenceable(64) %1) #2 align 2 {
  %3 = alloca ptr, align 8
  %4 = alloca ptr, align 8
  store ptr %0, ptr %3, align 8, !tbaa !3
  store ptr %1, ptr %4, align 8, !tbaa !17
  %5 = load ptr, ptr %3, align 8
  %6 = getelementptr inbounds nuw %"class.zmq::object_t", ptr %5, i32 0, i32 1
  %7 = load ptr, ptr %6, align 8, !tbaa !14
  %8 = load ptr, ptr %4, align 8, !tbaa !17
  %9 = getelementptr inbounds nuw %"struct.zmq::command_t", ptr %8, i32 0, i32 0
  %10 = load ptr, ptr %9, align 64, !tbaa !38
  %11 = call noundef i32 @_ZNK3zmq8object_t7get_tidEv(ptr noundef nonnull align 8 dereferenceable(20) %10)
  %12 = load ptr, ptr %4, align 8, !tbaa !17
  call void @_ZN3zmq5ctx_t12send_commandEjRKNS_9command_tE(ptr noundef nonnull align 8 dereferenceable(648) %7, i32 noundef %11, ptr noundef nonnull align 64 dereferenceable(64) %12)
  ret void
}

; Function Attrs: mustprogress uwtable
define void @_ZN3zmq8object_t11send_reapedEv(ptr noundef nonnull align 8 dereferenceable(20) %0) #2 align 2 {
  %2 = alloca ptr, align 8
  %3 = alloca %"struct.zmq::command_t", align 64
  store ptr %0, ptr %2, align 8, !tbaa !3
  %4 = load ptr, ptr %2, align 8
  call void @llvm.lifetime.start.p0(i64 64, ptr %3) #6
  %5 = getelementptr inbounds nuw %"class.zmq::object_t", ptr %4, i32 0, i32 1
  %6 = load ptr, ptr %5, align 8, !tbaa !14
  %7 = call noundef ptr @_ZNK3zmq5ctx_t10get_reaperEv(ptr noundef nonnull align 8 dereferenceable(648) %6)
  %8 = getelementptr inbounds nuw %"struct.zmq::command_t", ptr %3, i32 0, i32 0
  store ptr %7, ptr %8, align 64, !tbaa !38
  %9 = getelementptr inbounds nuw %"struct.zmq::command_t", ptr %3, i32 0, i32 1
  store i32 16, ptr %9, align 8, !tbaa !19
  call void @_ZN3zmq8object_t12send_commandERKNS_9command_tE(ptr noundef nonnull align 8 dereferenceable(20) %4, ptr noundef nonnull align 64 dereferenceable(64) %3)
  call void @llvm.lifetime.end.p0(i64 64, ptr %3) #6
  ret void
}