; Function Attrs: mustprogress uwtable
define void @_ZN3zmq8object_t11send_reapedEv(ptr noundef nonnull readonly align 8 captures(none) dereferenceable(20) %0) local_unnamed_addr #6 align 2 {
  %2 = alloca %"struct.zmq::command_t", align 64
  call void @llvm.lifetime.start.p0(i64 64, ptr nonnull %2) #11
  %3 = getelementptr inbounds nuw i8, ptr %0, i64 8
  %4 = load ptr, ptr %3, align 8, !tbaa !6
  %5 = tail call noundef ptr @_ZNK3zmq5ctx_t10get_reaperEv(ptr noundef nonnull align 8 dereferenceable(648) %4)
  store ptr %5, ptr %2, align 64, !tbaa !20
  %6 = getelementptr inbounds nuw i8, ptr %2, i64 8
  store i32 16, ptr %6, align 8, !tbaa !13
  %7 = load ptr, ptr %3, align 8, !tbaa !6
  %8 = getelementptr inbounds nuw i8, ptr %5, i64 16
  %9 = load i32, ptr %8, align 8, !tbaa !12
  call void @_ZN3zmq5ctx_t12send_commandEjRKNS_9command_tE(ptr noundef nonnull align 8 dereferenceable(648) %7, i32 noundef %9, ptr noundef nonnull align 64 dereferenceable(64) %2)
  call void @llvm.lifetime.end.p0(i64 64, ptr nonnull %2) #11
  ret void
}